Certificate:
    Data:
        Version: 3 (0x2)
        Serial Number:
            d9:b6:59:d5:cd:28:83:c3
        Signature Algorithm: sha1WithRSAEncryption
        Issuer: C=AU, ST=Some-State, O=Internet Widgits Pty Ltd, CN=My Personal Siri CA
        Validity
            Not Before: Nov 23 04:56:54 2011 GMT
            Not After : Nov 22 04:56:54 2012 GMT
        Subject: C=AU, ST=Some-State, O=Internet Widgits Pty Ltd, CN=guzzoni.apple.com
        Subject Public Key Info:
            Public Key Algorithm: rsaEncryption
                Public-Key: (1024 bit)
                Modulus:
                    00:b2:83:75:98:dd:38:83:b5:e3:f5:cf:a6:eb:29:
                    87:a9:45:fc:de:27:75:36:f8:03:d1:89:c4:7a:0d:
                    f7:17:51:79:8a:d6:6e:c3:8f:1a:b7:3c:c9:1e:f9:
                    91:a9:3d:ec:8f:e6:14:17:dd:21:67:bb:75:e9:8d:
                    b2:35:a7:90:27:52:74:f3:11:a7:57:93:95:3e:38:
                    69:c1:8c:d2:75:6d:15:1b:d6:0c:19:70:b3:c5:1b:
                    7b:71:ae:a6:29:d3:67:70:46:a1:d2:8d:3d:1e:1d:
                    42:b9:66:b2:ba:d3:9b:0d:8b:38:ad:49:97:07:b0:
                    5f:bd:ec:02:20:1e:90:ed:8b
                Exponent: 65537 (0x10001)
        X509v3 extensions:
            X509v3 Basic Constraints: 
                CA:FALSE
            Netscape Comment: 
                OpenSSL Generated Certificate
            X509v3 Subject Key Identifier: 
                47:05:DB:51:E4:24:D2:65:A7:BD:E2:B3:51:01:B0:BA:91:DF:82:B6
            X509v3 Authority Key Identifier: 
                keyid:37:8E:E9:3F:10:E5:3C:45:1E:5C:9B:D1:27:40:7D:5E:CF:0E:EA:97

    Signature Algorithm: sha1WithRSAEncryption
        18:a6:28:83:88:d0:5e:c5:4c:ad:f9:be:8e:ac:e0:3f:3a:2b:
        85:3d:9a:11:df:70:f7:8e:b0:03:9f:d6:06:bd:6a:63:7a:95:
        3c:65:4f:c2:b4:ff:cb:49:26:ea:a5:d8:ea:68:b9:b1:bd:8b:
        db:66:19:a7:40:4d:26:47:96:c4:fa:6d:f5:f7:da:55:d4:72:
        07:c3:55:26:8f:23:58:36:58:32:be:38:1c:b4:a8:ee:9d:52:
        d9:b9:ae:a1:40:ea:c9:ec:97:a6:17:2c:be:d0:5e:58:40:05:
        8a:c2:cc:34:88:28:1e:fe:5e:47:c7:6d:ee:16:1e:cb:34:c6:
        1a:63
-----BEGIN CERTIFICATE-----
MIICvTCCAiagAwIBAgIJANm2WdXNKIPDMA0GCSqGSIb3DQEBBQUAMGMxCzAJBgNV
BAYTAkFVMRMwEQYDVQQIDApTb21lLVN0YXRlMSEwHwYDVQQKDBhJbnRlcm5ldCBX
aWRnaXRzIFB0eSBMdGQxHDAaBgNVBAMME015IFBlcnNvbmFsIFNpcmkgQ0EwHhcN
MTExMTIzMDQ1NjU0WhcNMTIxMTIyMDQ1NjU0WjBhMQswCQYDVQQGEwJBVTETMBEG
A1UECAwKU29tZS1TdGF0ZTEhMB8GA1UECgwYSW50ZXJuZXQgV2lkZ2l0cyBQdHkg
THRkMRowGAYDVQQDDBFndXp6b25pLmFwcGxlLmNvbTCBnzANBgkqhkiG9w0BAQEF
AAOBjQAwgYkCgYEAsoN1mN04g7Xj9c+m6ymHqUX83id1NvgD0YnEeg33F1F5itZu
w48atzzJHvmRqT3sj+YUF90hZ7t16Y2yNaeQJ1J08xGnV5OVPjhpwYzSdW0VG9YM
GXCzxRt7ca6mKdNncEah0o09Hh1CuWayutObDYs4rUmXB7BfvewCIB6Q7YsCAwEA
AaN7MHkwCQYDVR0TBAIwADAsBglghkgBhvhCAQ0EHxYdT3BlblNTTCBHZW5lcmF0
ZWQgQ2VydGlmaWNhdGUwHQYDVR0OBBYEFEcF21HkJNJlp73is1EBsLqR34K2MB8G
A1UdIwQYMBaAFDeO6T8Q5TxFHlyb0SdAfV7PDuqXMA0GCSqGSIb3DQEBBQUAA4GB
ABimKIOI0F7FTK35vo6s4D86K4U9mhHfcPeOsAOf1ga9amN6lTxlT8K0/8tJJuql
2OpoubG9i9tmGadATSZHlsT6bfX32lXUcgfDVSaPI1g2WDK+OBy0qO6dUtm5rqFA
6snsl6YXLL7QXlhABYrCzDSIKB7+XkfHbe4WHss0xhpj
-----END CERTIFICATE-----
